; ModuleID = 'source-C-CXX/3/1978.c'
source_filename = "source-C-CXX/3/1978.c"
target datalayout = "e-m:e-p270:32:32-p271:32:32-p272:64:64-i64:64-f80:128-n8:16:32:64-S128"
target triple = "x86_64-pc-linux-gnu"

@.str = private unnamed_addr constant [5 x i8] c"%d%d\00", align 1
@.str.1 = private unnamed_addr constant [3 x i8] c"%d\00", align 1
@.str.2 = private unnamed_addr constant [4 x i8] c"%d\0A\00", align 1

; Function Attrs: mustprogress nofree norecurse nosync nounwind readnone sspstrong uwtable willreturn
define dso_local i32 @max(i32 %0, i32 %1) local_unnamed_addr #0 {
  %3 = icmp sgt i32 %0, %1
  %4 = select i1 %3, i32 %0, i32 %1
  ret i32 %4
}

; Function Attrs: mustprogress nofree norecurse nosync nounwind readnone sspstrong uwtable willreturn
define dso_local i32 @min(i32 %0, i32 %1) local_unnamed_addr #0 {
  %3 = icmp slt i32 %0, %1
  %4 = select i1 %3, i32 %0, i32 %1
  ret i32 %4
}

; Function Attrs: nofree nounwind sspstrong uwtable
define dso_local i32 @main() local_unnamed_addr #1 {
  %1 = alloca i32, align 4
  %2 = alloca i32, align 4
  %3 = alloca [100 x [100 x i32]], align 16
  %4 = bitcast i32* %1 to i8*
  call void @llvm.lifetime.start.p0i8(i64 4, i8* nonnull %4) #4
  %5 = bitcast i32* %2 to i8*
  call void @llvm.lifetime.start.p0i8(i64 4, i8* nonnull %5) #4
  %6 = bitcast [100 x [100 x i32]]* %3 to i8*
  call void @llvm.lifetime.start.p0i8(i64 40000, i8* nonnull %6) #4
  %7 = call i32 (i8*, ...) @__isoc99_scanf(i8* getelementptr inbounds ([5 x i8], [5 x i8]* @.str, i64 0, i64 0), i32* nonnull %2, i32* nonnull %1)
  %8 = load i32, i32* %2, align 4, !tbaa !5
  %9 = icmp sgt i32 %8, 0
  %10 = load i32, i32* %1, align 4, !tbaa !5
  br i1 %9, label %11, label %18

11:                                               ; preds = %0
  %12 = icmp sgt i32 %10, 0
  br i1 %12, label %13, label %47

13:                                               ; preds = %11, %32
  %14 = phi i32 [ %33, %32 ], [ %8, %11 ]
  %15 = phi i32 [ %34, %32 ], [ %10, %11 ]
  %16 = phi i64 [ %35, %32 ], [ 0, %11 ]
  %17 = icmp sgt i32 %15, 0
  br i1 %17, label %22, label %32

18:                                               ; preds = %32, %0
  %19 = phi i32 [ %8, %0 ], [ %33, %32 ]
  %20 = phi i32 [ %10, %0 ], [ %34, %32 ]
  %21 = icmp sgt i32 %20, 0
  br i1 %21, label %38, label %47

22:                                               ; preds = %13, %22
  %23 = phi i64 [ %26, %22 ], [ 0, %13 ]
  %24 = getelementptr inbounds [100 x [100 x i32]], [100 x [100 x i32]]* %3, i64 0, i64 %16, i64 %23
  %25 = call i32 (i8*, ...) @__isoc99_scanf(i8* getelementptr inbounds ([3 x i8], [3 x i8]* @.str.1, i64 0, i64 0), i32* nonnull %24)
  %26 = add nuw nsw i64 %23, 1
  %27 = load i32, i32* %1, align 4, !tbaa !5
  %28 = sext i32 %27 to i64
  %29 = icmp slt i64 %26, %28
  br i1 %29, label %22, label %30, !llvm.loop !9

30:                                               ; preds = %22
  %31 = load i32, i32* %2, align 4, !tbaa !5
  br label %32

32:                                               ; preds = %30, %13
  %33 = phi i32 [ %31, %30 ], [ %14, %13 ]
  %34 = phi i32 [ %27, %30 ], [ %15, %13 ]
  %35 = add nuw nsw i64 %16, 1
  %36 = sext i32 %33 to i64
  %37 = icmp slt i64 %35, %36
  br i1 %37, label %13, label %18, !llvm.loop !11

38:                                               ; preds = %18, %67
  %39 = phi i32 [ %68, %67 ], [ %20, %18 ]
  %40 = phi i32 [ %69, %67 ], [ %19, %18 ]
  %41 = phi i64 [ %72, %67 ], [ 0, %18 ]
  %42 = phi i32 [ %70, %67 ], [ 0, %18 ]
  %43 = add nsw i32 %40, -1
  %44 = icmp sge i32 %42, %43
  %45 = icmp slt i32 %40, 1
  %46 = and i1 %44, %45
  br i1 %46, label %67, label %51

47:                                               ; preds = %67, %11, %18
  %48 = phi i32 [ %20, %18 ], [ %10, %11 ], [ %68, %67 ]
  %49 = phi i32 [ %19, %18 ], [ %8, %11 ], [ %69, %67 ]
  %50 = icmp sgt i32 %49, 1
  br i1 %50, label %73, label %107

51:                                               ; preds = %38, %51
  %52 = phi i64 [ %58, %51 ], [ 0, %38 ]
  %53 = phi i64 [ %57, %51 ], [ %41, %38 ]
  %54 = getelementptr inbounds [100 x [100 x i32]], [100 x [100 x i32]]* %3, i64 0, i64 %52, i64 %53
  %55 = load i32, i32* %54, align 4, !tbaa !5
  %56 = call i32 (i8*, ...) @printf(i8* nonnull dereferenceable(1) getelementptr inbounds ([4 x i8], [4 x i8]* @.str.2, i64 0, i64 0), i32 %55)
  %57 = add nsw i64 %53, -1
  %58 = add nuw nsw i64 %52, 1
  %59 = load i32, i32* %2, align 4, !tbaa !5
  %60 = add nsw i32 %59, -1
  %61 = icmp slt i32 %42, %60
  %62 = select i1 %61, i32 %42, i32 %60
  %63 = sext i32 %62 to i64
  %64 = icmp slt i64 %52, %63
  br i1 %64, label %51, label %65, !llvm.loop !13

65:                                               ; preds = %51
  %66 = load i32, i32* %1, align 4, !tbaa !5
  br label %67

67:                                               ; preds = %65, %38
  %68 = phi i32 [ %66, %65 ], [ %39, %38 ]
  %69 = phi i32 [ %59, %65 ], [ %40, %38 ]
  %70 = add nuw nsw i32 %42, 1
  %71 = icmp slt i32 %70, %68
  %72 = add nuw nsw i64 %41, 1
  br i1 %71, label %38, label %47, !llvm.loop !14

73:                                               ; preds = %47, %101
  %74 = phi i32 [ %102, %101 ], [ %49, %47 ]
  %75 = phi i32 [ %103, %101 ], [ %48, %47 ]
  %76 = phi i64 [ %106, %101 ], [ 1, %47 ]
  %77 = phi i32 [ %104, %101 ], [ 1, %47 ]
  %78 = sub nsw i32 %75, %74
  %79 = add nsw i32 %78, %77
  %80 = icmp sgt i32 %79, 0
  %81 = select i1 %80, i32 %79, i32 0
  %82 = icmp sgt i32 %75, %81
  br i1 %82, label %83, label %101

83:                                               ; preds = %73
  %84 = sext i32 %75 to i64
  br label %85

85:                                               ; preds = %83, %85
  %86 = phi i64 [ %76, %83 ], [ %92, %85 ]
  %87 = phi i64 [ %84, %83 ], [ %88, %85 ]
  %88 = add nsw i64 %87, -1
  %89 = getelementptr inbounds [100 x [100 x i32]], [100 x [100 x i32]]* %3, i64 0, i64 %86, i64 %88
  %90 = load i32, i32* %89, align 4, !tbaa !5
  %91 = call i32 (i8*, ...) @printf(i8* nonnull dereferenceable(1) getelementptr inbounds ([4 x i8], [4 x i8]* @.str.2, i64 0, i64 0), i32 %90)
  %92 = add nuw i64 %86, 1
  %93 = load i32, i32* %1, align 4, !tbaa !5
  %94 = load i32, i32* %2, align 4, !tbaa !5
  %95 = sub nsw i32 %93, %94
  %96 = add nsw i32 %95, %77
  %97 = icmp sgt i32 %96, 0
  %98 = select i1 %97, i32 %96, i32 0
  %99 = zext i32 %98 to i64
  %100 = icmp sgt i64 %88, %99
  br i1 %100, label %85, label %101, !llvm.loop !15

101:                                              ; preds = %85, %73
  %102 = phi i32 [ %74, %73 ], [ %94, %85 ]
  %103 = phi i32 [ %75, %73 ], [ %93, %85 ]
  %104 = add nuw nsw i32 %77, 1
  %105 = icmp slt i32 %104, %102
  %106 = add nuw nsw i64 %76, 1
  br i1 %105, label %73, label %107, !llvm.loop !16

107:                                              ; preds = %101, %47
  call void @llvm.lifetime.end.p0i8(i64 40000, i8* nonnull %6) #4
  call void @llvm.lifetime.end.p0i8(i64 4, i8* nonnull %5) #4
  call void @llvm.lifetime.end.p0i8(i64 4, i8* nonnull %4) #4
  ret i32 0
}

; Function Attrs: argmemonly mustprogress nofree nosync nounwind willreturn
declare void @llvm.lifetime.start.p0i8(i64 immarg, i8* nocapture) #2

; Function Attrs: nofree nounwind
declare noundef i32 @__isoc99_scanf(i8* nocapture noundef readonly, ...) local_unnamed_addr #3

; Function Attrs: nofree nounwind
declare noundef i32 @printf(i8* nocapture noundef readonly, ...) local_unnamed_addr #3

; Function Attrs: argmemonly mustprogress nofree nosync nounwind willreturn
declare void @llvm.lifetime.end.p0i8(i64 immarg, i8* nocapture) #2


!llvm.module.flags = !{!0, !1, !2, !3}
!llvm.ident = !{!4}

!0 = !{i32 1, !"wchar_size", i32 4}
!1 = !{i32 7, !"PIC Level", i32 2}
!2 = !{i32 7, !"PIE Level", i32 2}
!3 = !{i32 7, !"uwtable", i32 1}
!4 = !{!"clang version 13.0.0"}
!5 = !{!6, !6, i64 0}
!6 = !{!"int", !7, i64 0}
!7 = !{!"omnipotent char", !8, i64 0}
!8 = !{!"Simple C/C++ TBAA"}
!9 = distinct !{!9, !10}
!10 = !{!"llvm.loop.mustprogress"}
!11 = distinct !{!11, !10, !12}
!12 = !{!"llvm.loop.unswitch.partial.disable"}
!13 = distinct !{!13, !10}
!14 = distinct !{!14, !10}
!15 = distinct !{!15, !10}
!16 = distinct !{!16, !10}
